; Function Attrs: nounwind uwtable
define internal ptr @wrap_hashfunc(ptr noundef %0, ptr noundef readonly captures(none) %1, ptr noundef readonly captures(none) %2) #1 {
  %4 = getelementptr i8, ptr %1, i64 8
  %.val8.i = load ptr, ptr %4, align 8, !tbaa !116
  %.not.i = icmp eq ptr %.val8.i, @PyTuple_Type
  br i1 %.not.i, label %7, label %5

5:                                                ; preds = %3
  %6 = load ptr, ptr @PyExc_SystemError, align 8, !tbaa !105
  tail call void @PyErr_SetString(ptr noundef %6, ptr noundef nonnull @.str.369) #24
  br label %check_num_args.exit.thread

7:                                                ; preds = %3
  %8 = getelementptr i8, ptr %1, i64 16
  %.val7.i = load i64, ptr %8, align 8, !tbaa !132
  %9 = icmp eq i64 %.val7.i, 0
  br i1 %9, label %check_num_args.exit, label %10

10:                                               ; preds = %7
  %11 = load ptr, ptr @PyExc_TypeError, align 8, !tbaa !105
  %12 = tail call ptr (ptr, ptr, ...) @PyErr_Format(ptr noundef %11, ptr noundef nonnull @.str.370, i32 noundef 0, ptr noundef nonnull @.str.189, i64 noundef %.val7.i) #24
  br label %check_num_args.exit.thread

check_num_args.exit:                              ; preds = %7
  %13 = tail call i64 %2(ptr noundef %0) #24
  %14 = icmp eq i64 %13, -1
  br i1 %14, label %15, label %17

15:                                               ; preds = %check_num_args.exit
  %16 = tail call ptr @PyErr_Occurred() #24
  %.not6 = icmp eq ptr %16, null
  br i1 %.not6, label %17, label %check_num_args.exit.thread

17:                                               ; preds = %15, %check_num_args.exit
  %18 = tail call ptr @PyLong_FromSsize_t(i64 noundef %13) #24
  br label %check_num_args.exit.thread

check_num_args.exit.thread:                       ; preds = %5, %10, %15, %17
  %.0 = phi ptr [ %18, %17 ], [ null, %15 ], [ null, %10 ], [ null, %5 ]
  ret ptr %.0
}